target datalayout = "e-m:e-p270:32:32-p271:32:32-p272:64:64-i64:64-i128:128-f80:128-n8:16:32:64-S128"
target triple = "x86_64-pc-linux-gnu"

%struct.stbi__zhuffman = type { [512 x i16], [16 x i16], [17 x i32], [16 x i16], [288 x i8], [288 x i16] }
%struct.stbi__zbuf = type { ptr, ptr, i32, i32, i32, ptr, ptr, ptr, i32, %struct.stbi__zhuffman, %struct.stbi__zhuffman }

@stbi__g_failure_reason = thread_local global ptr null, align 8
@.str.1 = private unnamed_addr constant [9 x i8] c"outofmem\00", align 1
@.str.40 = private unnamed_addr constant [20 x i8] c"output buffer limit\00", align 1

; Function Attrs: nounwind uwtable
define i32 @stbi__err(ptr noundef %0) #0 {
  %2 = alloca ptr, align 8
  store ptr %0, ptr %2, align 8, !tbaa !7
  %3 = load ptr, ptr %2, align 8, !tbaa !7
  %4 = call align 8 ptr @llvm.threadlocal.address.p0(ptr align 8 @stbi__g_failure_reason)
  store ptr %3, ptr %4, align 8, !tbaa !7
  ret i32 0
}

; Function Attrs: nounwind uwtable
define i32 @stbi__zexpand(ptr noundef %0, ptr noundef %1, i32 noundef %2) #0 {
  %4 = alloca i32, align 4
  %5 = alloca ptr, align 8
  %6 = alloca ptr, align 8
  %7 = alloca i32, align 4
  %8 = alloca ptr, align 8
  %9 = alloca i32, align 4
  %10 = alloca i32, align 4
  %11 = alloca i32, align 4
  %12 = alloca i32, align 4
  store ptr %0, ptr %5, align 8, !tbaa !3
  store ptr %1, ptr %6, align 8, !tbaa !7
  store i32 %2, ptr %7, align 4, !tbaa !9
  call void @llvm.lifetime.start.p0(i64 8, ptr %8) #13
  call void @llvm.lifetime.start.p0(i64 4, ptr %9) #13
  call void @llvm.lifetime.start.p0(i64 4, ptr %10) #13
  call void @llvm.lifetime.start.p0(i64 4, ptr %11) #13
  %13 = load ptr, ptr %6, align 8, !tbaa !7
  %14 = load ptr, ptr %5, align 8, !tbaa !3
  %15 = getelementptr inbounds nuw %struct.stbi__zbuf, ptr %14, i32 0, i32 5
  store ptr %13, ptr %15, align 8, !tbaa !293
  %16 = load ptr, ptr %5, align 8, !tbaa !3
  %17 = getelementptr inbounds nuw %struct.stbi__zbuf, ptr %16, i32 0, i32 8
  %18 = load i32, ptr %17, align 8, !tbaa !294
  %19 = icmp ne i32 %18, 0
  br i1 %19, label %22, label %20

20:                                               ; preds = %3
  %21 = call i32 @stbi__err(ptr noundef @.str.40)
  store i32 %21, ptr %4, align 4
  store i32 1, ptr %12, align 4
  br label %91

22:                                               ; preds = %3
  %23 = load ptr, ptr %5, align 8, !tbaa !3
  %24 = getelementptr inbounds nuw %struct.stbi__zbuf, ptr %23, i32 0, i32 5
  %25 = load ptr, ptr %24, align 8, !tbaa !293
  %26 = load ptr, ptr %5, align 8, !tbaa !3
  %27 = getelementptr inbounds nuw %struct.stbi__zbuf, ptr %26, i32 0, i32 6
  %28 = load ptr, ptr %27, align 8, !tbaa !295
  %29 = ptrtoint ptr %25 to i64
  %30 = ptrtoint ptr %28 to i64
  %31 = sub i64 %29, %30
  %32 = trunc i64 %31 to i32
  store i32 %32, ptr %9, align 4, !tbaa !9
  %33 = load ptr, ptr %5, align 8, !tbaa !3
  %34 = getelementptr inbounds nuw %struct.stbi__zbuf, ptr %33, i32 0, i32 7
  %35 = load ptr, ptr %34, align 8, !tbaa !296
  %36 = load ptr, ptr %5, align 8, !tbaa !3
  %37 = getelementptr inbounds nuw %struct.stbi__zbuf, ptr %36, i32 0, i32 6
  %38 = load ptr, ptr %37, align 8, !tbaa !295
  %39 = ptrtoint ptr %35 to i64
  %40 = ptrtoint ptr %38 to i64
  %41 = sub i64 %39, %40
  %42 = trunc i64 %41 to i32
  store i32 %42, ptr %11, align 4, !tbaa !9
  store i32 %42, ptr %10, align 4, !tbaa !9
  %43 = load i32, ptr %9, align 4, !tbaa !9
  %44 = sub i32 -1, %43
  %45 = load i32, ptr %7, align 4, !tbaa !9
  %46 = icmp ult i32 %44, %45
  br i1 %46, label %47, label %49

47:                                               ; preds = %22
  %48 = call i32 @stbi__err(ptr noundef @.str.1)
  store i32 %48, ptr %4, align 4
  store i32 1, ptr %12, align 4
  br label %91

49:                                               ; preds = %22
  br label %50

50:                                               ; preds = %61, %49
  %51 = load i32, ptr %9, align 4, !tbaa !9
  %52 = load i32, ptr %7, align 4, !tbaa !9
  %53 = add i32 %51, %52
  %54 = load i32, ptr %10, align 4, !tbaa !9
  %55 = icmp ugt i32 %53, %54
  br i1 %55, label %56, label %64

56:                                               ; preds = %50
  %57 = load i32, ptr %10, align 4, !tbaa !9
  %58 = icmp ugt i32 %57, 2147483647
  br i1 %58, label %59, label %61

59:                                               ; preds = %56
  %60 = call i32 @stbi__err(ptr noundef @.str.1)
  store i32 %60, ptr %4, align 4
  store i32 1, ptr %12, align 4
  br label %91

61:                                               ; preds = %56
  %62 = load i32, ptr %10, align 4, !tbaa !9
  %63 = mul i32 %62, 2
  store i32 %63, ptr %10, align 4, !tbaa !9
  br label %50, !llvm.loop !297

64:                                               ; preds = %50
  %65 = load ptr, ptr %5, align 8, !tbaa !3
  %66 = getelementptr inbounds nuw %struct.stbi__zbuf, ptr %65, i32 0, i32 6
  %67 = load ptr, ptr %66, align 8, !tbaa !295
  %68 = load i32, ptr %10, align 4, !tbaa !9
  %69 = zext i32 %68 to i64
  %70 = call ptr @realloc(ptr noundef %67, i64 noundef %69) #16
  store ptr %70, ptr %8, align 8, !tbaa !7
  %71 = load ptr, ptr %8, align 8, !tbaa !7
  %72 = icmp eq ptr %71, null
  br i1 %72, label %73, label %75

73:                                               ; preds = %64
  %74 = call i32 @stbi__err(ptr noundef @.str.1)
  store i32 %74, ptr %4, align 4
  store i32 1, ptr %12, align 4
  br label %91

75:                                               ; preds = %64
  %76 = load ptr, ptr %8, align 8, !tbaa !7
  %77 = load ptr, ptr %5, align 8, !tbaa !3
  %78 = getelementptr inbounds nuw %struct.stbi__zbuf, ptr %77, i32 0, i32 6
  store ptr %76, ptr %78, align 8, !tbaa !295
  %79 = load ptr, ptr %8, align 8, !tbaa !7
  %80 = load i32, ptr %9, align 4, !tbaa !9
  %81 = zext i32 %80 to i64
  %82 = getelementptr inbounds nuw i8, ptr %79, i64 %81
  %83 = load ptr, ptr %5, align 8, !tbaa !3
  %84 = getelementptr inbounds nuw %struct.stbi__zbuf, ptr %83, i32 0, i32 5
  store ptr %82, ptr %84, align 8, !tbaa !293
  %85 = load ptr, ptr %8, align 8, !tbaa !7
  %86 = load i32, ptr %10, align 4, !tbaa !9
  %87 = zext i32 %86 to i64
  %88 = getelementptr inbounds nuw i8, ptr %85, i64 %87
  %89 = load ptr, ptr %5, align 8, !tbaa !3
  %90 = getelementptr inbounds nuw %struct.stbi__zbuf, ptr %89, i32 0, i32 7
  store ptr %88, ptr %90, align 8, !tbaa !296
  store i32 1, ptr %4, align 4
  store i32 1, ptr %12, align 4
  br label %91

91:                                               ; preds = %75, %73, %59, %47, %20
  call void @llvm.lifetime.end.p0(i64 4, ptr %11) #13
  call void @llvm.lifetime.end.p0(i64 4, ptr %10) #13
  call void @llvm.lifetime.end.p0(i64 4, ptr %9) #13
  call void @llvm.lifetime.end.p0(i64 8, ptr %8) #13
  %92 = load i32, ptr %4, align 4
  ret i32 %92
}