; Function Attrs: nounwind uwtable
define range(i32 0, 2) i32 @stbi__zexpand(ptr noundef captures(none) initializes((32, 40)) %0, ptr noundef %1, i32 noundef %2) local_unnamed_addr #2 {
  %4 = getelementptr inbounds nuw i8, ptr %0, i64 32
  store ptr %1, ptr %4, align 8, !tbaa !283
  %5 = getelementptr inbounds nuw i8, ptr %0, i64 56
  %6 = load i32, ptr %5, align 8, !tbaa !284
  %.not = icmp eq i32 %6, 0
  br i1 %.not, label %7, label %9

7:                                                ; preds = %3
  %8 = tail call align 8 ptr @llvm.threadlocal.address.p0(ptr align 8 @stbi__g_failure_reason)
  store ptr @.str.40, ptr %8, align 8, !tbaa !22
  br label %42

9:                                                ; preds = %3
  %10 = getelementptr inbounds nuw i8, ptr %0, i64 40
  %11 = load ptr, ptr %10, align 8, !tbaa !285
  %12 = ptrtoint ptr %1 to i64
  %13 = ptrtoint ptr %11 to i64
  %14 = sub i64 %12, %13
  %15 = trunc i64 %14 to i32
  %16 = getelementptr inbounds nuw i8, ptr %0, i64 48
  %17 = xor i32 %15, -1
  %18 = icmp ugt i32 %2, %17
  br i1 %18, label %25, label %.preheader

.preheader:                                       ; preds = %9
  %19 = load ptr, ptr %16, align 8, !tbaa !286
  %20 = ptrtoint ptr %19 to i64
  %21 = sub i64 %20, %13
  %22 = trunc i64 %21 to i32
  %23 = add i32 %2, %15
  %24 = icmp ugt i32 %23, %22
  br i1 %24, label %.lr.ph, label %._crit_edge

25:                                               ; preds = %9
  %26 = tail call align 8 ptr @llvm.threadlocal.address.p0(ptr align 8 @stbi__g_failure_reason)
  store ptr @.str.1, ptr %26, align 8, !tbaa !22
  br label %42

.lr.ph:                                           ; preds = %.preheader, %30
  %.02528 = phi i32 [ %31, %30 ], [ %22, %.preheader ]
  %27 = icmp slt i32 %.02528, 0
  br i1 %27, label %28, label %30

28:                                               ; preds = %.lr.ph
  %29 = tail call align 8 ptr @llvm.threadlocal.address.p0(ptr align 8 @stbi__g_failure_reason)
  store ptr @.str.1, ptr %29, align 8, !tbaa !22
  br label %42

30:                                               ; preds = %.lr.ph
  %31 = shl nuw i32 %.02528, 1
  %32 = icmp ugt i32 %23, %31
  br i1 %32, label %.lr.ph, label %._crit_edge, !llvm.loop !287

._crit_edge:                                      ; preds = %30, %.preheader
  %.025.lcssa = phi i32 [ %22, %.preheader ], [ %31, %30 ]
  %33 = zext i32 %.025.lcssa to i64
  %34 = tail call ptr @realloc(ptr noundef %11, i64 noundef %33) #39
  %35 = icmp eq ptr %34, null
  br i1 %35, label %36, label %38

36:                                               ; preds = %._crit_edge
  %37 = tail call align 8 ptr @llvm.threadlocal.address.p0(ptr align 8 @stbi__g_failure_reason)
  store ptr @.str.1, ptr %37, align 8, !tbaa !22
  br label %42

38:                                               ; preds = %._crit_edge
  store ptr %34, ptr %10, align 8, !tbaa !285
  %39 = and i64 %14, 4294967295
  %40 = getelementptr inbounds nuw i8, ptr %34, i64 %39
  store ptr %40, ptr %4, align 8, !tbaa !283
  %41 = getelementptr inbounds nuw i8, ptr %34, i64 %33
  store ptr %41, ptr %16, align 8, !tbaa !286
  br label %42

42:                                               ; preds = %38, %36, %28, %25, %7
  %.0 = phi i32 [ 0, %25 ], [ 0, %28 ], [ 0, %36 ], [ 1, %38 ], [ 0, %7 ]
  ret i32 %.0
}